target datalayout = "e-m:e-p270:32:32-p271:32:32-p272:64:64-i64:64-i128:128-f80:128-n8:16:32:64-S128"
target triple = "x86_64-pc-linux-gnu"

%"class.icu_77::UnicodeString" = type { %"class.icu_77::Replaceable", %"union.icu_77::UnicodeString::StackBufferOrFields" }
%"class.icu_77::Replaceable" = type { %"class.icu_77::UObject" }
%"class.icu_77::UObject" = type { ptr }
%"union.icu_77::UnicodeString::StackBufferOrFields" = type { %struct.anon.0, [32 x i8] }
%struct.anon.0 = type { i16, i32, i32, ptr }
%"class.icu_77::VTimeZone" = type { %"class.icu_77::BasicTimeZone", ptr, ptr, %"class.icu_77::UnicodeString", double, %"class.icu_77::UnicodeString", %"class.icu_77::UnicodeString" }
%"class.icu_77::BasicTimeZone" = type { %"class.icu_77::TimeZone" }
%"class.icu_77::TimeZone" = type { %"class.icu_77::UObject", %"class.icu_77::UnicodeString" }

; Function Attrs: mustprogress uwtable
define void @_ZNK6icu_779VTimeZone18getOffsetFromLocalEd20UTimeZoneLocalOptionS1_RiS2_R10UErrorCode(ptr noundef nonnull align 8 dereferenceable(288) %0, double noundef %1, i32 noundef %2, i32 noundef %3, ptr noundef nonnull align 4 dereferenceable(4) %4, ptr noundef nonnull align 4 dereferenceable(4) %5, ptr noundef nonnull align 4 dereferenceable(4) %6) unnamed_addr #1 align 2 {
  %8 = alloca ptr, align 8
  %9 = alloca double, align 8
  %10 = alloca i32, align 4
  %11 = alloca i32, align 4
  %12 = alloca ptr, align 8
  %13 = alloca ptr, align 8
  %14 = alloca ptr, align 8
  store ptr %0, ptr %8, align 8, !tbaa !29
  store double %1, ptr %9, align 8, !tbaa !77
  store i32 %2, ptr %10, align 4, !tbaa !88
  store i32 %3, ptr %11, align 4, !tbaa !88
  store ptr %4, ptr %12, align 8, !tbaa !86
  store ptr %5, ptr %13, align 8, !tbaa !86
  store ptr %6, ptr %14, align 8, !tbaa !55
  %15 = load ptr, ptr %8, align 8
  %16 = getelementptr inbounds nuw %"class.icu_77::VTimeZone", ptr %15, i32 0, i32 1
  %17 = load ptr, ptr %16, align 8, !tbaa !33
  %18 = load double, ptr %9, align 8, !tbaa !77
  %19 = load i32, ptr %10, align 4, !tbaa !88
  %20 = load i32, ptr %11, align 4, !tbaa !88
  %21 = load ptr, ptr %12, align 8, !tbaa !86
  %22 = load ptr, ptr %13, align 8, !tbaa !86
  %23 = load ptr, ptr %14, align 8, !tbaa !55
  %24 = load ptr, ptr %17, align 8, !tbaa !31
  %25 = getelementptr inbounds ptr, ptr %24, i64 20
  %26 = load ptr, ptr %25, align 8
  call void %26(ptr noundef nonnull align 8 dereferenceable(72) %17, double noundef %18, i32 noundef %19, i32 noundef %20, ptr noundef nonnull align 4 dereferenceable(4) %21, ptr noundef nonnull align 4 dereferenceable(4) %22, ptr noundef nonnull align 4 dereferenceable(4) %23)
  ret void
}